target datalayout = "e-m:e-p270:32:32-p271:32:32-p272:64:64-i64:64-i128:128-f80:128-n8:16:32:64-S128"
target triple = "x86_64-pc-linux-gnu"

%"class.boost::serialization::extended_type_info" = type { ptr, i32, ptr }

; Function Attrs: mustprogress uwtable
define noundef zeroext i1 @_ZNK5boost13serialization18extended_type_infoltERKS1_(ptr noundef nonnull align 8 dereferenceable(24) %0, ptr noundef nonnull align 8 dereferenceable(24) %1) #1 align 2 {
  %3 = alloca i1, align 1
  %4 = alloca ptr, align 8
  %5 = alloca ptr, align 8
  store ptr %0, ptr %4, align 8, !tbaa !3
  store ptr %1, ptr %5, align 8, !tbaa !3
  %6 = load ptr, ptr %4, align 8
  %7 = load ptr, ptr %5, align 8, !tbaa !3
  %8 = icmp eq ptr %6, %7
  br i1 %8, label %9, label %10

9:                                                ; preds = %2
  store i1 false, ptr %3, align 1
  br label %32

10:                                               ; preds = %2
  %11 = getelementptr inbounds nuw %"class.boost::serialization::extended_type_info", ptr %6, i32 0, i32 1
  %12 = load i32, ptr %11, align 8, !tbaa !18
  %13 = load ptr, ptr %5, align 8, !tbaa !3
  %14 = getelementptr inbounds nuw %"class.boost::serialization::extended_type_info", ptr %13, i32 0, i32 1
  %15 = load i32, ptr %14, align 8, !tbaa !18
  %16 = icmp eq i32 %12, %15
  br i1 %16, label %17, label %23

17:                                               ; preds = %10
  %18 = load ptr, ptr %5, align 8, !tbaa !3
  %19 = load ptr, ptr %6, align 8, !tbaa !15
  %20 = getelementptr inbounds ptr, ptr %19, i64 0
  %21 = load ptr, ptr %20, align 8
  %22 = call noundef zeroext i1 %21(ptr noundef nonnull align 8 dereferenceable(24) %6, ptr noundef nonnull align 8 dereferenceable(24) %18)
  store i1 %22, ptr %3, align 1
  br label %32

23:                                               ; preds = %10
  %24 = getelementptr inbounds nuw %"class.boost::serialization::extended_type_info", ptr %6, i32 0, i32 1
  %25 = load i32, ptr %24, align 8, !tbaa !18
  %26 = load ptr, ptr %5, align 8, !tbaa !3
  %27 = getelementptr inbounds nuw %"class.boost::serialization::extended_type_info", ptr %26, i32 0, i32 1
  %28 = load i32, ptr %27, align 8, !tbaa !18
  %29 = icmp ult i32 %25, %28
  br i1 %29, label %30, label %31

30:                                               ; preds = %23
  store i1 true, ptr %3, align 1
  br label %32

31:                                               ; preds = %23
  store i1 false, ptr %3, align 1
  br label %32

32:                                               ; preds = %31, %30, %17, %9
  %33 = load i1, ptr %3, align 1
  ret i1 %33
}